; Function Attrs: nounwind uwtable
define internal i32 @H5FD__splitter_cmp(ptr noundef readonly captures(none) %0, ptr noundef readonly captures(none) %1) #0 {
  %3 = load i8, ptr @H5FD_init_g, align 1, !tbaa !3, !range !7, !noundef !8
  %4 = trunc nuw i8 %3 to i1
  %5 = load i8, ptr @H5_libterm_g, align 1, !range !7
  %6 = trunc nuw i8 %5 to i1
  %7 = xor i1 %6, true
  %8 = select i1 %4, i1 true, i1 %7
  br i1 %8, label %9, label %15, !prof !9

9:                                                ; preds = %2
  %10 = getelementptr inbounds nuw i8, ptr %0, i64 8304
  %11 = load ptr, ptr %10, align 8, !tbaa !33
  %12 = getelementptr inbounds nuw i8, ptr %1, i64 8304
  %13 = load ptr, ptr %12, align 8, !tbaa !33
  %14 = tail call i32 @H5FD_cmp(ptr noundef %11, ptr noundef %13) #12
  br label %15

15:                                               ; preds = %9, %2
  %.0 = phi i32 [ %14, %9 ], [ 0, %2 ]
  ret i32 %.0
}